target datalayout = "e-m:e-p270:32:32-p271:32:32-p272:64:64-i64:64-i128:128-f80:128-n8:16:32:64-S128"
target triple = "x86_64-pc-linux-gnu"

%struct._zval_struct = type { %union._zend_value, %union.anon.0, %union.anon.3 }
%union._zend_value = type { i64 }
%union.anon.0 = type { i32 }
%union.anon.3 = type { i32 }
%struct._zend_array = type { %struct._zend_refcounted_h, %union.anon.5, i32, %union.anon.7, i32, i32, i32, i32, i64, ptr }
%struct._zend_refcounted_h = type { i32, %union.anon }
%union.anon = type { i32 }
%union.anon.5 = type { i32 }
%union.anon.7 = type { ptr }
%struct._zend_object = type { %struct._zend_refcounted_h, i32, ptr, ptr, ptr, [1 x %struct._zval_struct] }
%struct._zend_class_entry = type { i8, ptr, %union.anon.4, i32, i32, i32, i32, ptr, ptr, ptr, %struct._zend_array, %struct._zend_array, %struct._zend_array, ptr, ptr, ptr, ptr, ptr, ptr, ptr, ptr, ptr, ptr, ptr, ptr, ptr, ptr, ptr, ptr, ptr, ptr, ptr, %union.anon.8, ptr, ptr, ptr, ptr, i32, i32, %union.anon.9, ptr, ptr, ptr, ptr, i32, ptr, ptr, %union.anon.10 }
%union.anon.4 = type { ptr }
%union.anon.8 = type { ptr }
%union.anon.9 = type { ptr }
%union.anon.10 = type { %struct.anon.11 }
%struct.anon.11 = type { ptr, i32, i32 }
%struct._zend_string = type { %struct._zend_refcounted_h, i64, i64, [1 x i8] }
%struct._zend_reference = type { %struct._zend_refcounted_h, %struct._zval_struct, %union.zend_property_info_source_list }
%union.zend_property_info_source_list = type { ptr }
%struct.anon.1 = type { i8, i8, %union.anon.2 }
%union.anon.2 = type { i16 }
%struct._zend_class_arrayaccess_funcs = type { ptr, ptr, ptr, ptr }

@.str.24 = private unnamed_addr constant [38 x i8] c"Cannot use object of type %s as array\00", align 1

; Function Attrs: nounwind uwtable
define internal void @zend_bad_array_access(ptr noundef %0) #0 {
  %2 = alloca ptr, align 8
  store ptr %0, ptr %2, align 8
  %3 = load ptr, ptr %2, align 8
  %4 = getelementptr inbounds %struct._zend_class_entry, ptr %3, i32 0, i32 1
  %5 = load ptr, ptr %4, align 8
  %6 = getelementptr inbounds %struct._zend_string, ptr %5, i32 0, i32 3
  %7 = getelementptr inbounds [1 x i8], ptr %6, i64 0, i64 0
  call void (ptr, ptr, ...) @zend_throw_error(ptr noundef null, ptr noundef @.str.24, ptr noundef %7)
  ret void
}

; Function Attrs: nounwind uwtable
define void @zend_std_write_dimension(ptr noundef %0, ptr noundef %1, ptr noundef %2) #0 {
  %4 = alloca ptr, align 8
  %5 = alloca ptr, align 8
  %6 = alloca ptr, align 8
  %7 = alloca ptr, align 8
  %8 = alloca ptr, align 8
  %9 = alloca ptr, align 8
  %10 = alloca ptr, align 8
  %11 = alloca ptr, align 8
  %12 = alloca ptr, align 8
  %13 = alloca ptr, align 8
  %14 = alloca ptr, align 8
  %15 = alloca %struct._zval_struct, align 8
  %16 = alloca ptr, align 8
  %17 = alloca ptr, align 8
  %18 = alloca ptr, align 8
  %19 = alloca ptr, align 8
  %20 = alloca ptr, align 8
  %21 = alloca i32, align 4
  store ptr %0, ptr %11, align 8
  store ptr %1, ptr %12, align 8
  store ptr %2, ptr %13, align 8
  %22 = load ptr, ptr %11, align 8
  %23 = getelementptr inbounds %struct._zend_object, ptr %22, i32 0, i32 2
  %24 = load ptr, ptr %23, align 8
  store ptr %24, ptr %14, align 8
  %25 = load ptr, ptr %14, align 8
  %26 = getelementptr inbounds %struct._zend_class_entry, ptr %25, i32 0, i32 31
  %27 = load ptr, ptr %26, align 8
  store ptr %27, ptr %16, align 8
  %28 = load ptr, ptr %16, align 8
  %29 = icmp ne ptr %28, null
  %30 = xor i1 %29, true
  %31 = xor i1 %30, true
  %32 = zext i1 %31 to i32
  %33 = sext i32 %32 to i64
  %34 = icmp ne i64 %33, 0
  br i1 %34, label %35, label %150

35:                                               ; preds = %3
  %36 = load ptr, ptr %12, align 8
  %37 = icmp ne ptr %36, null
  br i1 %37, label %42, label %38

38:                                               ; preds = %35
  br label %39

39:                                               ; preds = %38
  %40 = getelementptr inbounds %struct._zval_struct, ptr %15, i32 0, i32 1
  store i32 1, ptr %40, align 8
  br label %41

41:                                               ; preds = %39
  br label %118

42:                                               ; preds = %35
  br label %43

43:                                               ; preds = %42
  %44 = load ptr, ptr %12, align 8
  store ptr %44, ptr %17, align 8
  %45 = load ptr, ptr %17, align 8
  %46 = getelementptr inbounds %struct._zval_struct, ptr %45, i32 0, i32 1
  %47 = load i32, ptr %46, align 8
  %48 = and i32 %47, 65280
  %49 = icmp ne i32 %48, 0
  br i1 %49, label %50, label %99

50:                                               ; preds = %43
  %51 = load ptr, ptr %17, align 8
  %52 = getelementptr inbounds %struct._zval_struct, ptr %51, i32 0, i32 1
  %53 = load i32, ptr %52, align 8
  %54 = and i32 %53, 255
  %55 = icmp eq i32 %54, 10
  %56 = xor i1 %55, true
  %57 = xor i1 %56, true
  %58 = zext i1 %57 to i32
  %59 = sext i32 %58 to i64
  %60 = icmp ne i64 %59, 0
  br i1 %60, label %61, label %85

61:                                               ; preds = %50
  %62 = load ptr, ptr %17, align 8
  %63 = getelementptr inbounds %struct._zval_struct, ptr %62, i32 0, i32 0
  %64 = load ptr, ptr %63, align 8
  %65 = getelementptr inbounds %struct._zend_reference, ptr %64, i32 0, i32 1
  store ptr %65, ptr %17, align 8
  %66 = load ptr, ptr %17, align 8
  %67 = getelementptr inbounds %struct._zval_struct, ptr %66, i32 0, i32 1
  %68 = load i32, ptr %67, align 8
  %69 = and i32 %68, 65280
  %70 = icmp ne i32 %69, 0
  br i1 %70, label %71, label %84

71:                                               ; preds = %61
  %72 = load ptr, ptr %17, align 8
  store ptr %72, ptr %9, align 8
  %73 = load ptr, ptr %9, align 8
  %74 = getelementptr inbounds %struct._zval_struct, ptr %73, i32 0, i32 1
  %75 = getelementptr inbounds %struct.anon.1, ptr %74, i32 0, i32 1
  %76 = load i8, ptr %75, align 1
  %77 = zext i8 %76 to i32
  %78 = icmp ne i32 %77, 0
  call void @llvm.assume(i1 %78)
  %79 = load ptr, ptr %9, align 8
  %80 = load ptr, ptr %79, align 8
  store ptr %80, ptr %8, align 8
  %81 = load ptr, ptr %8, align 8
  %82 = load i32, ptr %81, align 4
  %83 = add i32 %82, 1
  store i32 %83, ptr %81, align 4
  br label %84

84:                                               ; preds = %71, %61
  br label %98

85:                                               ; preds = %50
  %86 = load ptr, ptr %17, align 8
  store ptr %86, ptr %10, align 8
  %87 = load ptr, ptr %10, align 8
  %88 = getelementptr inbounds %struct._zval_struct, ptr %87, i32 0, i32 1
  %89 = getelementptr inbounds %struct.anon.1, ptr %88, i32 0, i32 1
  %90 = load i8, ptr %89, align 1
  %91 = zext i8 %90 to i32
  %92 = icmp ne i32 %91, 0
  call void @llvm.assume(i1 %92)
  %93 = load ptr, ptr %10, align 8
  %94 = load ptr, ptr %93, align 8
  store ptr %94, ptr %7, align 8
  %95 = load ptr, ptr %7, align 8
  %96 = load i32, ptr %95, align 4
  %97 = add i32 %96, 1
  store i32 %97, ptr %95, align 4
  br label %98

98:                                               ; preds = %85, %84
  br label %99

99:                                               ; preds = %98, %43
  br label %100

100:                                              ; preds = %99
  store ptr %15, ptr %18, align 8
  %101 = load ptr, ptr %17, align 8
  store ptr %101, ptr %19, align 8
  %102 = load ptr, ptr %19, align 8
  %103 = getelementptr inbounds %struct._zval_struct, ptr %102, i32 0, i32 0
  %104 = load ptr, ptr %103, align 8
  store ptr %104, ptr %20, align 8
  %105 = load ptr, ptr %19, align 8
  %106 = getelementptr inbounds %struct._zval_struct, ptr %105, i32 0, i32 1
  %107 = load i32, ptr %106, align 8
  store i32 %107, ptr %21, align 4
  br label %108

108:                                              ; preds = %100
  %109 = load ptr, ptr %20, align 8
  %110 = load ptr, ptr %18, align 8
  %111 = getelementptr inbounds %struct._zval_struct, ptr %110, i32 0, i32 0
  store ptr %109, ptr %111, align 8
  %112 = load i32, ptr %21, align 4
  %113 = load ptr, ptr %18, align 8
  %114 = getelementptr inbounds %struct._zval_struct, ptr %113, i32 0, i32 1
  store i32 %112, ptr %114, align 8
  br label %115

115:                                              ; preds = %108
  br label %116

116:                                              ; preds = %115
  br label %117

117:                                              ; preds = %116
  br label %118

118:                                              ; preds = %117, %41
  %119 = load ptr, ptr %11, align 8
  %120 = getelementptr inbounds %struct._zend_object, ptr %119, i32 0, i32 0
  store ptr %120, ptr %6, align 8
  %121 = load ptr, ptr %6, align 8
  %122 = load i32, ptr %121, align 4
  %123 = add i32 %122, 1
  store i32 %123, ptr %121, align 4
  %124 = load ptr, ptr %16, align 8
  %125 = getelementptr inbounds %struct._zend_class_arrayaccess_funcs, ptr %124, i32 0, i32 2
  %126 = load ptr, ptr %125, align 8
  %127 = load ptr, ptr %11, align 8
  %128 = load ptr, ptr %13, align 8
  call void @zend_call_known_instance_method_with_2_params(ptr noundef %126, ptr noundef %127, ptr noundef null, ptr noundef %15, ptr noundef %128)
  %129 = load ptr, ptr %11, align 8
  store ptr %129, ptr %5, align 8
  %130 = load ptr, ptr %5, align 8
  store ptr %130, ptr %4, align 8
  %131 = load ptr, ptr %4, align 8
  %132 = load i32, ptr %131, align 4
  %133 = icmp ugt i32 %132, 0
  call void @llvm.assume(i1 %133)
  %134 = load ptr, ptr %4, align 8
  %135 = load i32, ptr %134, align 4
  %136 = add i32 %135, -1
  store i32 %136, ptr %134, align 4
  %137 = icmp eq i32 %136, 0
  br i1 %137, label %138, label %140

138:                                              ; preds = %118
  %139 = load ptr, ptr %5, align 8
  call void @zend_objects_store_del(ptr noundef %139) #10
  br label %149

140:                                              ; preds = %118
  %141 = load ptr, ptr %5, align 8
  %142 = getelementptr inbounds %struct._zend_refcounted_h, ptr %141, i32 0, i32 1
  %143 = load i32, ptr %142, align 4
  %144 = and i32 %143, -1008
  %145 = icmp eq i32 %144, 0
  br i1 %145, label %146, label %148

146:                                              ; preds = %140
  %147 = load ptr, ptr %5, align 8
  call void @gc_possible_root(ptr noundef %147) #10
  br label %148

148:                                              ; preds = %146, %140
  br label %149

149:                                              ; preds = %148, %138
  call void @zval_ptr_dtor(ptr noundef %15)
  br label %152

150:                                              ; preds = %3
  %151 = load ptr, ptr %14, align 8
  call void @zend_bad_array_access(ptr noundef %151)
  br label %152

152:                                              ; preds = %150, %149
  ret void
}