; Function Attrs: nounwind uwtable
define void @zend_std_write_dimension(ptr noundef %0, ptr noundef readonly %1, ptr noundef %2) #0 {
  %4 = alloca %struct._zval_struct, align 8
  %5 = getelementptr inbounds i8, ptr %0, i64 16
  %6 = load ptr, ptr %5, align 8
  %7 = getelementptr inbounds i8, ptr %6, i64 376
  %8 = load ptr, ptr %7, align 8
  %.not = icmp eq ptr %8, null
  br i1 %.not, label %50, label %9

9:                                                ; preds = %3
  %.not38 = icmp eq ptr %1, null
  br i1 %.not38, label %32, label %10

10:                                               ; preds = %9
  %11 = getelementptr inbounds i8, ptr %1, i64 8
  %12 = load i32, ptr %11, align 8
  %13 = and i32 %12, 65280
  %.not39 = icmp eq i32 %13, 0
  br i1 %.not39, label %28, label %14

14:                                               ; preds = %10
  %15 = and i32 %12, 255
  %16 = icmp eq i32 %15, 10
  br i1 %16, label %17, label %.sink.split

17:                                               ; preds = %14
  %18 = load ptr, ptr %1, align 8
  %19 = getelementptr inbounds i8, ptr %18, i64 8
  %20 = getelementptr inbounds i8, ptr %18, i64 16
  %21 = load i32, ptr %20, align 8
  %22 = and i32 %21, 65280
  %.not40 = icmp eq i32 %22, 0
  br i1 %.not40, label %28, label %.sink.split

.sink.split:                                      ; preds = %14, %17
  %.sink = phi i32 [ %21, %17 ], [ %12, %14 ]
  %.sink45 = phi ptr [ %19, %17 ], [ %1, %14 ]
  %23 = and i32 %.sink, 65280
  %24 = icmp ne i32 %23, 0
  tail call void @llvm.assume(i1 %24)
  %25 = load ptr, ptr %.sink45, align 8
  %26 = load i32, ptr %25, align 4
  %27 = add i32 %26, 1
  store i32 %27, ptr %25, align 4
  br label %28

28:                                               ; preds = %.sink.split, %10, %17
  %.0 = phi ptr [ %19, %17 ], [ %1, %10 ], [ %.sink45, %.sink.split ]
  %29 = load ptr, ptr %.0, align 8
  %30 = getelementptr inbounds i8, ptr %.0, i64 8
  %31 = load i32, ptr %30, align 8
  store ptr %29, ptr %4, align 8
  br label %32

32:                                               ; preds = %9, %28
  %.sink43 = phi i32 [ %31, %28 ], [ 1, %9 ]
  %33 = getelementptr inbounds i8, ptr %4, i64 8
  store i32 %.sink43, ptr %33, align 8
  %34 = load i32, ptr %0, align 4
  %35 = add i32 %34, 1
  store i32 %35, ptr %0, align 4
  %36 = getelementptr inbounds i8, ptr %8, i64 16
  %37 = load ptr, ptr %36, align 8
  call void @zend_call_known_instance_method_with_2_params(ptr noundef %37, ptr noundef nonnull %0, ptr noundef null, ptr noundef nonnull %4, ptr noundef %2) #15
  %38 = load i32, ptr %0, align 4
  %39 = icmp ne i32 %38, 0
  call void @llvm.assume(i1 %39)
  %40 = add i32 %38, -1
  store i32 %40, ptr %0, align 4
  %41 = icmp eq i32 %40, 0
  br i1 %41, label %42, label %43

42:                                               ; preds = %32
  call void @zend_objects_store_del(ptr noundef nonnull %0) #15
  br label %49

43:                                               ; preds = %32
  %44 = getelementptr inbounds i8, ptr %0, i64 4
  %45 = load i32, ptr %44, align 4
  %46 = and i32 %45, -1008
  %47 = icmp eq i32 %46, 0
  br i1 %47, label %48, label %49

48:                                               ; preds = %43
  call void @gc_possible_root(ptr noundef nonnull %0) #15
  br label %49

49:                                               ; preds = %43, %48, %42
  call void @zval_ptr_dtor(ptr noundef nonnull %4) #15
  br label %53

50:                                               ; preds = %3
  %51 = getelementptr i8, ptr %6, i64 8
  %.val = load ptr, ptr %51, align 8
  %52 = getelementptr inbounds i8, ptr %.val, i64 24
  tail call void (ptr, ptr, ...) @zend_throw_error(ptr noundef null, ptr noundef nonnull @.str.24, ptr noundef nonnull %52) #15
  br label %53

53:                                               ; preds = %50, %49
  ret void
}